target datalayout = "e-m:e-p270:32:32-p271:32:32-p272:64:64-i64:64-i128:128-f80:128-n8:16:32:64-S128"
target triple = "x86_64-unknown-linux-gnu"

%struct.z_stream_s = type { ptr, i32, i64, ptr, i32, i64, ptr, ptr, ptr, ptr, ptr, i32, i64, i64, i32 }

; Function Attrs: nounwind uwtable
define dso_local i32 @MOZ_Z_inflateBackEnd(ptr noundef %strm) #0 {
entry:
  %retval = alloca i32, align 4
  %strm.addr = alloca ptr, align 8
  store ptr %strm, ptr %strm.addr, align 8
  %0 = load ptr, ptr %strm.addr, align 8
  %cmp = icmp eq ptr %0, null
  br i1 %cmp, label %if.then, label %lor.lhs.false

lor.lhs.false:                                    ; preds = %entry
  %1 = load ptr, ptr %strm.addr, align 8
  %state = getelementptr inbounds %struct.z_stream_s, ptr %1, i32 0, i32 7
  %2 = load ptr, ptr %state, align 8
  %cmp1 = icmp eq ptr %2, null
  br i1 %cmp1, label %if.then, label %lor.lhs.false2

lor.lhs.false2:                                   ; preds = %lor.lhs.false
  %3 = load ptr, ptr %strm.addr, align 8
  %zfree = getelementptr inbounds %struct.z_stream_s, ptr %3, i32 0, i32 9
  %4 = load ptr, ptr %zfree, align 8
  %cmp3 = icmp eq ptr %4, null
  br i1 %cmp3, label %if.then, label %if.end

if.then:                                          ; preds = %lor.lhs.false2, %lor.lhs.false, %entry
  store i32 -2, ptr %retval, align 4
  br label %return

if.end:                                           ; preds = %lor.lhs.false2
  %5 = load ptr, ptr %strm.addr, align 8
  %zfree4 = getelementptr inbounds %struct.z_stream_s, ptr %5, i32 0, i32 9
  %6 = load ptr, ptr %zfree4, align 8
  %7 = load ptr, ptr %strm.addr, align 8
  %opaque = getelementptr inbounds %struct.z_stream_s, ptr %7, i32 0, i32 10
  %8 = load ptr, ptr %opaque, align 8
  %9 = load ptr, ptr %strm.addr, align 8
  %state5 = getelementptr inbounds %struct.z_stream_s, ptr %9, i32 0, i32 7
  %10 = load ptr, ptr %state5, align 8
  call void %6(ptr noundef %8, ptr noundef %10)
  %11 = load ptr, ptr %strm.addr, align 8
  %state6 = getelementptr inbounds %struct.z_stream_s, ptr %11, i32 0, i32 7
  store ptr null, ptr %state6, align 8
  store i32 0, ptr %retval, align 4
  br label %return

return:                                           ; preds = %if.end, %if.then
  %12 = load i32, ptr %retval, align 4
  ret i32 %12
}