; Function Attrs: nounwind uwtable
define dso_local range(i32 -2, 1) i32 @MOZ_Z_inflateBackEnd(ptr noundef %strm) local_unnamed_addr #0 {
entry:
  %cmp = icmp eq ptr %strm, null
  br i1 %cmp, label %return, label %lor.lhs.false

lor.lhs.false:                                    ; preds = %entry
  %state = getelementptr inbounds nuw i8, ptr %strm, i64 56
  %0 = load ptr, ptr %state, align 8
  %cmp1 = icmp eq ptr %0, null
  br i1 %cmp1, label %return, label %lor.lhs.false2

lor.lhs.false2:                                   ; preds = %lor.lhs.false
  %zfree = getelementptr inbounds nuw i8, ptr %strm, i64 72
  %1 = load ptr, ptr %zfree, align 8
  %cmp3 = icmp eq ptr %1, null
  br i1 %cmp3, label %return, label %if.end

if.end:                                           ; preds = %lor.lhs.false2
  %opaque = getelementptr inbounds nuw i8, ptr %strm, i64 80
  %2 = load ptr, ptr %opaque, align 8
  tail call void %1(ptr noundef %2, ptr noundef nonnull %0) #4
  store ptr null, ptr %state, align 8
  br label %return

return:                                           ; preds = %entry, %lor.lhs.false, %lor.lhs.false2, %if.end
  %retval.0 = phi i32 [ 0, %if.end ], [ -2, %lor.lhs.false2 ], [ -2, %lor.lhs.false ], [ -2, %entry ]
  ret i32 %retval.0
}